; ModuleID = '14/214.c'
source_filename = "14/214.c"
target datalayout = "e-m:e-p270:32:32-p271:32:32-p272:64:64-i64:64-f80:128-n8:16:32:64-S128"
target triple = "x86_64-pc-linux-gnu"

%struct.stu = type { i32, i32, i32 }

@.str = private unnamed_addr constant [3 x i8] c"%d\00", align 1
@.str.1 = private unnamed_addr constant [7 x i8] c"%d%d%d\00", align 1
@a = common dso_local global [100000 x %struct.stu] zeroinitializer, align 16
@.str.2 = private unnamed_addr constant [18 x i8] c"%d %d\0A%d %d\0A%d %d\00", align 1

; Function Attrs: noinline nounwind uwtable
define dso_local void @main() #0 {
  %1 = alloca i32, align 4
  %2 = alloca i32, align 4
  %3 = alloca i32, align 4
  %4 = alloca i32, align 4
  %5 = alloca i32, align 4
  %6 = alloca i32, align 4
  %7 = alloca i32, align 4
  %8 = alloca i32, align 4
  %9 = alloca i32, align 4
  store i32 0, i32* %6, align 4
  store i32 0, i32* %7, align 4
  store i32 0, i32* %8, align 4
  %10 = call i32 (i8*, ...) @__isoc99_scanf(i8* getelementptr inbounds ([3 x i8], [3 x i8]* @.str, i64 0, i64 0), i32* %1)
  store i32 0, i32* %2, align 4
  br label %11

11:                                               ; preds = %29, %0
  %12 = load i32, i32* %2, align 4
  %13 = load i32, i32* %1, align 4
  %14 = icmp slt i32 %12, %13
  br i1 %14, label %15, label %32

15:                                               ; preds = %11
  %16 = load i32, i32* %2, align 4
  %17 = sext i32 %16 to i64
  %18 = getelementptr inbounds [100000 x %struct.stu], [100000 x %struct.stu]* @a, i64 0, i64 %17
  %19 = getelementptr inbounds %struct.stu, %struct.stu* %18, i32 0, i32 0
  %20 = load i32, i32* %2, align 4
  %21 = sext i32 %20 to i64
  %22 = getelementptr inbounds [100000 x %struct.stu], [100000 x %struct.stu]* @a, i64 0, i64 %21
  %23 = getelementptr inbounds %struct.stu, %struct.stu* %22, i32 0, i32 1
  %24 = load i32, i32* %2, align 4
  %25 = sext i32 %24 to i64
  %26 = getelementptr inbounds [100000 x %struct.stu], [100000 x %struct.stu]* @a, i64 0, i64 %25
  %27 = getelementptr inbounds %struct.stu, %struct.stu* %26, i32 0, i32 2
  %28 = call i32 (i8*, ...) @__isoc99_scanf(i8* getelementptr inbounds ([7 x i8], [7 x i8]* @.str.1, i64 0, i64 0), i32* %19, i32* %23, i32* %27)
  br label %29

29:                                               ; preds = %15
  %30 = load i32, i32* %2, align 4
  %31 = add nsw i32 %30, 1
  store i32 %31, i32* %2, align 4
  br label %11

32:                                               ; preds = %11
  store i32 0, i32* %3, align 4
  store i32 0, i32* %4, align 4
  store i32 0, i32* %5, align 4
  store i32 0, i32* %2, align 4
  br label %33

33:                                               ; preds = %245, %32
  %34 = load i32, i32* %2, align 4
  %35 = load i32, i32* %1, align 4
  %36 = icmp slt i32 %34, %35
  br i1 %36, label %37, label %248

37:                                               ; preds = %33
  %38 = load i32, i32* %3, align 4
  %39 = load i32, i32* %2, align 4
  %40 = sext i32 %39 to i64
  %41 = getelementptr inbounds [100000 x %struct.stu], [100000 x %struct.stu]* @a, i64 0, i64 %40
  %42 = getelementptr inbounds %struct.stu, %struct.stu* %41, i32 0, i32 1
  %43 = load i32, i32* %42, align 4
  %44 = load i32, i32* %2, align 4
  %45 = sext i32 %44 to i64
  %46 = getelementptr inbounds [100000 x %struct.stu], [100000 x %struct.stu]* @a, i64 0, i64 %45
  %47 = getelementptr inbounds %struct.stu, %struct.stu* %46, i32 0, i32 2
  %48 = load i32, i32* %47, align 4
  %49 = add nsw i32 %43, %48
  %50 = icmp slt i32 %38, %49
  br i1 %50, label %51, label %72

51:                                               ; preds = %37
  %52 = load i32, i32* %4, align 4
  store i32 %52, i32* %5, align 4
  %53 = load i32, i32* %7, align 4
  store i32 %53, i32* %8, align 4
  %54 = load i32, i32* %3, align 4
  store i32 %54, i32* %4, align 4
  %55 = load i32, i32* %6, align 4
  store i32 %55, i32* %7, align 4
  %56 = load i32, i32* %2, align 4
  %57 = sext i32 %56 to i64
  %58 = getelementptr inbounds [100000 x %struct.stu], [100000 x %struct.stu]* @a, i64 0, i64 %57
  %59 = getelementptr inbounds %struct.stu, %struct.stu* %58, i32 0, i32 1
  %60 = load i32, i32* %59, align 4
  %61 = load i32, i32* %2, align 4
  %62 = sext i32 %61 to i64
  %63 = getelementptr inbounds [100000 x %struct.stu], [100000 x %struct.stu]* @a, i64 0, i64 %62
  %64 = getelementptr inbounds %struct.stu, %struct.stu* %63, i32 0, i32 2
  %65 = load i32, i32* %64, align 4
  %66 = add nsw i32 %60, %65
  store i32 %66, i32* %3, align 4
  %67 = load i32, i32* %2, align 4
  %68 = sext i32 %67 to i64
  %69 = getelementptr inbounds [100000 x %struct.stu], [100000 x %struct.stu]* @a, i64 0, i64 %68
  %70 = getelementptr inbounds %struct.stu, %struct.stu* %69, i32 0, i32 0
  %71 = load i32, i32* %70, align 4
  store i32 %71, i32* %6, align 4
  br label %244

72:                                               ; preds = %37
  %73 = load i32, i32* %3, align 4
  %74 = load i32, i32* %2, align 4
  %75 = sext i32 %74 to i64
  %76 = getelementptr inbounds [100000 x %struct.stu], [100000 x %struct.stu]* @a, i64 0, i64 %75
  %77 = getelementptr inbounds %struct.stu, %struct.stu* %76, i32 0, i32 1
  %78 = load i32, i32* %77, align 4
  %79 = load i32, i32* %2, align 4
  %80 = sext i32 %79 to i64
  %81 = getelementptr inbounds [100000 x %struct.stu], [100000 x %struct.stu]* @a, i64 0, i64 %80
  %82 = getelementptr inbounds %struct.stu, %struct.stu* %81, i32 0, i32 2
  %83 = load i32, i32* %82, align 4
  %84 = add nsw i32 %78, %83
  %85 = icmp eq i32 %73, %84
  br i1 %85, label %86, label %109

86:                                               ; preds = %72
  %87 = load i32, i32* %3, align 4
  %88 = load i32, i32* %4, align 4
  %89 = icmp sgt i32 %87, %88
  br i1 %89, label %90, label %109

90:                                               ; preds = %86
  %91 = load i32, i32* %4, align 4
  store i32 %91, i32* %5, align 4
  %92 = load i32, i32* %7, align 4
  store i32 %92, i32* %8, align 4
  %93 = load i32, i32* %2, align 4
  %94 = sext i32 %93 to i64
  %95 = getelementptr inbounds [100000 x %struct.stu], [100000 x %struct.stu]* @a, i64 0, i64 %94
  %96 = getelementptr inbounds %struct.stu, %struct.stu* %95, i32 0, i32 0
  %97 = load i32, i32* %96, align 4
  store i32 %97, i32* %7, align 4
  %98 = load i32, i32* %2, align 4
  %99 = sext i32 %98 to i64
  %100 = getelementptr inbounds [100000 x %struct.stu], [100000 x %struct.stu]* @a, i64 0, i64 %99
  %101 = getelementptr inbounds %struct.stu, %struct.stu* %100, i32 0, i32 1
  %102 = load i32, i32* %101, align 4
  %103 = load i32, i32* %2, align 4
  %104 = sext i32 %103 to i64
  %105 = getelementptr inbounds [100000 x %struct.stu], [100000 x %struct.stu]* @a, i64 0, i64 %104
  %106 = getelementptr inbounds %struct.stu, %struct.stu* %105, i32 0, i32 2
  %107 = load i32, i32* %106, align 4
  %108 = add nsw i32 %102, %107
  store i32 %108, i32* %4, align 4
  br label %243

109:                                              ; preds = %86, %72
  %110 = load i32, i32* %3, align 4
  %111 = load i32, i32* %2, align 4
  %112 = sext i32 %111 to i64
  %113 = getelementptr inbounds [100000 x %struct.stu], [100000 x %struct.stu]* @a, i64 0, i64 %112
  %114 = getelementptr inbounds %struct.stu, %struct.stu* %113, i32 0, i32 1
  %115 = load i32, i32* %114, align 4
  %116 = load i32, i32* %2, align 4
  %117 = sext i32 %116 to i64
  %118 = getelementptr inbounds [100000 x %struct.stu], [100000 x %struct.stu]* @a, i64 0, i64 %117
  %119 = getelementptr inbounds %struct.stu, %struct.stu* %118, i32 0, i32 2
  %120 = load i32, i32* %119, align 4
  %121 = add nsw i32 %115, %120
  %122 = icmp eq i32 %110, %121
  br i1 %122, label %123, label %148

123:                                              ; preds = %109
  %124 = load i32, i32* %3, align 4
  %125 = load i32, i32* %4, align 4
  %126 = icmp eq i32 %124, %125
  br i1 %126, label %127, label %148

127:                                              ; preds = %123
  %128 = load i32, i32* %4, align 4
  %129 = load i32, i32* %5, align 4
  %130 = icmp sgt i32 %128, %129
  br i1 %130, label %131, label %148

131:                                              ; preds = %127
  %132 = load i32, i32* %2, align 4
  %133 = sext i32 %132 to i64
  %134 = getelementptr inbounds [100000 x %struct.stu], [100000 x %struct.stu]* @a, i64 0, i64 %133
  %135 = getelementptr inbounds %struct.stu, %struct.stu* %134, i32 0, i32 1
  %136 = load i32, i32* %135, align 4
  %137 = load i32, i32* %2, align 4
  %138 = sext i32 %137 to i64
  %139 = getelementptr inbounds [100000 x %struct.stu], [100000 x %struct.stu]* @a, i64 0, i64 %138
  %140 = getelementptr inbounds %struct.stu, %struct.stu* %139, i32 0, i32 2
  %141 = load i32, i32* %140, align 4
  %142 = add nsw i32 %136, %141
  store i32 %142, i32* %5, align 4
  %143 = load i32, i32* %2, align 4
  %144 = sext i32 %143 to i64
  %145 = getelementptr inbounds [100000 x %struct.stu], [100000 x %struct.stu]* @a, i64 0, i64 %144
  %146 = getelementptr inbounds %struct.stu, %struct.stu* %145, i32 0, i32 0
  %147 = load i32, i32* %146, align 4
  store i32 %147, i32* %8, align 4
  br label %242

148:                                              ; preds = %127, %123, %109
  %149 = load i32, i32* %3, align 4
  %150 = load i32, i32* %2, align 4
  %151 = sext i32 %150 to i64
  %152 = getelementptr inbounds [100000 x %struct.stu], [100000 x %struct.stu]* @a, i64 0, i64 %151
  %153 = getelementptr inbounds %struct.stu, %struct.stu* %152, i32 0, i32 1
  %154 = load i32, i32* %153, align 4
  %155 = load i32, i32* %2, align 4
  %156 = sext i32 %155 to i64
  %157 = getelementptr inbounds [100000 x %struct.stu], [100000 x %struct.stu]* @a, i64 0, i64 %156
  %158 = getelementptr inbounds %struct.stu, %struct.stu* %157, i32 0, i32 2
  %159 = load i32, i32* %158, align 4
  %160 = add nsw i32 %154, %159
  %161 = icmp sgt i32 %149, %160
  br i1 %161, label %162, label %195

162:                                              ; preds = %148
  %163 = load i32, i32* %4, align 4
  %164 = load i32, i32* %2, align 4
  %165 = sext i32 %164 to i64
  %166 = getelementptr inbounds [100000 x %struct.stu], [100000 x %struct.stu]* @a, i64 0, i64 %165
  %167 = getelementptr inbounds %struct.stu, %struct.stu* %166, i32 0, i32 1
  %168 = load i32, i32* %167, align 4
  %169 = load i32, i32* %2, align 4
  %170 = sext i32 %169 to i64
  %171 = getelementptr inbounds [100000 x %struct.stu], [100000 x %struct.stu]* @a, i64 0, i64 %170
  %172 = getelementptr inbounds %struct.stu, %struct.stu* %171, i32 0, i32 2
  %173 = load i32, i32* %172, align 4
  %174 = add nsw i32 %168, %173
  %175 = icmp slt i32 %163, %174
  br i1 %175, label %176, label %195

176:                                              ; preds = %162
  %177 = load i32, i32* %4, align 4
  store i32 %177, i32* %5, align 4
  %178 = load i32, i32* %7, align 4
  store i32 %178, i32* %8, align 4
  %179 = load i32, i32* %2, align 4
  %180 = sext i32 %179 to i64
  %181 = getelementptr inbounds [100000 x %struct.stu], [100000 x %struct.stu]* @a, i64 0, i64 %180
  %182 = getelementptr inbounds %struct.stu, %struct.stu* %181, i32 0, i32 1
  %183 = load i32, i32* %182, align 4
  %184 = load i32, i32* %2, align 4
  %185 = sext i32 %184 to i64
  %186 = getelementptr inbounds [100000 x %struct.stu], [100000 x %struct.stu]* @a, i64 0, i64 %185
  %187 = getelementptr inbounds %struct.stu, %struct.stu* %186, i32 0, i32 2
  %188 = load i32, i32* %187, align 4
  %189 = add nsw i32 %183, %188
  store i32 %189, i32* %4, align 4
  %190 = load i32, i32* %2, align 4
  %191 = sext i32 %190 to i64
  %192 = getelementptr inbounds [100000 x %struct.stu], [100000 x %struct.stu]* @a, i64 0, i64 %191
  %193 = getelementptr inbounds %struct.stu, %struct.stu* %192, i32 0, i32 0
  %194 = load i32, i32* %193, align 4
  store i32 %194, i32* %7, align 4
  br label %241

195:                                              ; preds = %162, %148
  %196 = load i32, i32* %4, align 4
  %197 = load i32, i32* %2, align 4
  %198 = sext i32 %197 to i64
  %199 = getelementptr inbounds [100000 x %struct.stu], [100000 x %struct.stu]* @a, i64 0, i64 %198
  %200 = getelementptr inbounds %struct.stu, %struct.stu* %199, i32 0, i32 1
  %201 = load i32, i32* %200, align 4
  %202 = load i32, i32* %2, align 4
  %203 = sext i32 %202 to i64
  %204 = getelementptr inbounds [100000 x %struct.stu], [100000 x %struct.stu]* @a, i64 0, i64 %203
  %205 = getelementptr inbounds %struct.stu, %struct.stu* %204, i32 0, i32 2
  %206 = load i32, i32* %205, align 4
  %207 = add nsw i32 %201, %206
  %208 = icmp sgt i32 %196, %207
  br i1 %208, label %209, label %240

209:                                              ; preds = %195
  %210 = load i32, i32* %5, align 4
  %211 = load i32, i32* %2, align 4
  %212 = sext i32 %211 to i64
  %213 = getelementptr inbounds [100000 x %struct.stu], [100000 x %struct.stu]* @a, i64 0, i64 %212
  %214 = getelementptr inbounds %struct.stu, %struct.stu* %213, i32 0, i32 1
  %215 = load i32, i32* %214, align 4
  %216 = load i32, i32* %2, align 4
  %217 = sext i32 %216 to i64
  %218 = getelementptr inbounds [100000 x %struct.stu], [100000 x %struct.stu]* @a, i64 0, i64 %217
  %219 = getelementptr inbounds %struct.stu, %struct.stu* %218, i32 0, i32 2
  %220 = load i32, i32* %219, align 4
  %221 = add nsw i32 %215, %220
  %222 = icmp slt i32 %210, %221
  br i1 %222, label %223, label %240

223:                                              ; preds = %209
  %224 = load i32, i32* %2, align 4
  %225 = sext i32 %224 to i64
  %226 = getelementptr inbounds [100000 x %struct.stu], [100000 x %struct.stu]* @a, i64 0, i64 %225
  %227 = getelementptr inbounds %struct.stu, %struct.stu* %226, i32 0, i32 1
  %228 = load i32, i32* %227, align 4
  %229 = load i32, i32* %2, align 4
  %230 = sext i32 %229 to i64
  %231 = getelementptr inbounds [100000 x %struct.stu], [100000 x %struct.stu]* @a, i64 0, i64 %230
  %232 = getelementptr inbounds %struct.stu, %struct.stu* %231, i32 0, i32 2
  %233 = load i32, i32* %232, align 4
  %234 = add nsw i32 %228, %233
  store i32 %234, i32* %5, align 4
  %235 = load i32, i32* %2, align 4
  %236 = sext i32 %235 to i64
  %237 = getelementptr inbounds [100000 x %struct.stu], [100000 x %struct.stu]* @a, i64 0, i64 %236
  %238 = getelementptr inbounds %struct.stu, %struct.stu* %237, i32 0, i32 0
  %239 = load i32, i32* %238, align 4
  store i32 %239, i32* %8, align 4
  br label %240

240:                                              ; preds = %223, %209, %195
  br label %241

241:                                              ; preds = %240, %176
  br label %242

242:                                              ; preds = %241, %131
  br label %243

243:                                              ; preds = %242, %90
  br label %244

244:                                              ; preds = %243, %51
  br label %245

245:                                              ; preds = %244
  %246 = load i32, i32* %2, align 4
  %247 = add nsw i32 %246, 1
  store i32 %247, i32* %2, align 4
  br label %33

248:                                              ; preds = %33
  %249 = load i32, i32* %6, align 4
  %250 = load i32, i32* %3, align 4
  %251 = load i32, i32* %7, align 4
  %252 = load i32, i32* %4, align 4
  %253 = load i32, i32* %8, align 4
  %254 = load i32, i32* %5, align 4
  %255 = call i32 (i8*, ...) @printf(i8* getelementptr inbounds ([18 x i8], [18 x i8]* @.str.2, i64 0, i64 0), i32 %249, i32 %250, i32 %251, i32 %252, i32 %253, i32 %254)
  ret void
}

declare dso_local i32 @__isoc99_scanf(i8*, ...) #1

declare dso_local i32 @printf(i8*, ...) #1


!llvm.module.flags = !{!0}
!llvm.ident = !{!1}

!0 = !{i32 1, !"wchar_size", i32 4}
!1 = !{!"clang version 10.0.0-4ubuntu1 "}
